target datalayout = "e-m:e-p270:32:32-p271:32:32-p272:64:64-i64:64-i128:128-f80:128-n8:16:32:64-S128"
target triple = "x86_64-pc-linux-gnu"

%"class.llvm::RegisterBankInfo::InstructionMapping" = type <{ i32, i32, ptr, i32, [4 x i8] }>

; Function Attrs: mustprogress nounwind uwtable
define linkonce_odr hidden noundef i32 @_ZNK4llvm16RegisterBankInfo18InstructionMapping5getIDEv(ptr noundef nonnull align 8 dereferenceable(20) %0) #1 comdat align 2 {
  %2 = alloca ptr, align 8
  store ptr %0, ptr %2, align 8
  %3 = load ptr, ptr %2, align 8
  %4 = getelementptr inbounds nuw %"class.llvm::RegisterBankInfo::InstructionMapping", ptr %3, i32 0, i32 0
  %5 = load i32, ptr %4, align 8
  ret i32 %5
}

; Function Attrs: mustprogress nounwind uwtable
define linkonce_odr hidden noundef zeroext i1 @_ZNK4llvm16RegisterBankInfo18InstructionMapping7isValidEv(ptr noundef nonnull align 8 dereferenceable(20) %0) #1 comdat align 2 {
  %2 = alloca ptr, align 8
  store ptr %0, ptr %2, align 8
  %3 = load ptr, ptr %2, align 8
  %4 = call noundef i32 @_ZNK4llvm16RegisterBankInfo18InstructionMapping5getIDEv(ptr noundef nonnull align 8 dereferenceable(20) %3)
  %5 = icmp ne i32 %4, -2
  br i1 %5, label %6, label %10

6:                                                ; preds = %1
  %7 = getelementptr inbounds nuw %"class.llvm::RegisterBankInfo::InstructionMapping", ptr %3, i32 0, i32 2
  %8 = load ptr, ptr %7, align 8
  %9 = icmp ne ptr %8, null
  br label %10

10:                                               ; preds = %6, %1
  %11 = phi i1 [ false, %1 ], [ %9, %6 ]
  ret i1 %11
}

; Function Attrs: mustprogress nounwind uwtable
define dso_local noundef nonnull align 8 dereferenceable(20) ptr @_ZNK4llvm16RegisterBankInfo15getInstrMappingERKNS_12MachineInstrE(ptr noundef nonnull align 8 dereferenceable(160) %0, ptr noundef nonnull align 8 dereferenceable(70) %1) unnamed_addr #1 align 2 {
  %3 = alloca ptr, align 8
  %4 = alloca ptr, align 8
  %5 = alloca ptr, align 8
  store ptr %0, ptr %3, align 8
  store ptr %1, ptr %4, align 8
  %6 = load ptr, ptr %3, align 8
  %7 = load ptr, ptr %4, align 8
  %8 = call noundef nonnull align 8 dereferenceable(20) ptr @_ZNK4llvm16RegisterBankInfo19getInstrMappingImplERKNS_12MachineInstrE(ptr noundef nonnull align 8 dereferenceable(160) %6, ptr noundef nonnull align 8 dereferenceable(70) %7)
  store ptr %8, ptr %5, align 8
  %9 = load ptr, ptr %5, align 8
  %10 = call noundef zeroext i1 @_ZNK4llvm16RegisterBankInfo18InstructionMapping7isValidEv(ptr noundef nonnull align 8 dereferenceable(20) %9)
  br i1 %10, label %11, label %13

11:                                               ; preds = %2
  %12 = load ptr, ptr %5, align 8
  ret ptr %12

13:                                               ; preds = %2
  unreachable
}