; Function Attrs: mustprogress nounwind uwtable
define dso_local noundef nonnull align 8 dereferenceable(20) ptr @_ZNK4llvm16RegisterBankInfo15getInstrMappingERKNS_12MachineInstrE(ptr noundef nonnull align 8 dereferenceable(160) %0, ptr noundef nonnull align 8 dereferenceable(70) %1) unnamed_addr #2 align 2 {
  %3 = tail call noundef nonnull align 8 dereferenceable(20) ptr @_ZNK4llvm16RegisterBankInfo19getInstrMappingImplERKNS_12MachineInstrE(ptr noundef nonnull align 8 dereferenceable(160) %0, ptr noundef nonnull align 8 dereferenceable(70) %1)
  %4 = load i32, ptr %3, align 8
  %.not.i = icmp ne i32 %4, -2
  %5 = getelementptr inbounds nuw i8, ptr %3, i64 8
  %6 = load ptr, ptr %5, align 8
  %7 = icmp ne ptr %6, null
  tail call void @llvm.assume(i1 %.not.i)
  tail call void @llvm.assume(i1 %7)
  ret ptr %3
}